; Function Attrs: mustprogress nounwind uwtable
define hidden void @_ZN4ncnn9ParamDictD2Ev(ptr noundef nonnull align 8 captures(none) dereferenceable(16) initializes((0, 8)) %0) unnamed_addr #0 align 2 personality ptr @__gxx_personality_v0 {
  store ptr getelementptr inbounds nuw inrange(-16, 16) (i8, ptr @_ZTVN4ncnn9ParamDictE, i64 16), ptr %0, align 8, !tbaa !4
  %2 = getelementptr inbounds nuw i8, ptr %0, i64 8
  %3 = load ptr, ptr %2, align 8, !tbaa !21
  %4 = icmp eq ptr %3, null
  br i1 %4, label %41, label %5

5:                                                ; preds = %1
  %6 = getelementptr inbounds nuw i8, ptr %3, i64 3584
  br label %7

7:                                                ; preds = %_ZN4ncnn16ParamDictPrivateUt_D2Ev.exit.i, %5
  %8 = phi ptr [ %6, %5 ], [ %9, %_ZN4ncnn16ParamDictPrivateUt_D2Ev.exit.i ]
  %9 = getelementptr inbounds i8, ptr %8, i64 -112
  %10 = getelementptr inbounds i8, ptr %8, i64 -32
  %11 = load ptr, ptr %10, align 8, !tbaa !29
  %12 = getelementptr inbounds i8, ptr %8, i64 -16
  %13 = icmp eq ptr %11, %12
  br i1 %13, label %_ZNKSt7__cxx1112basic_stringIcSt11char_traitsIcESaIcEE11_M_is_localEv.exit.thread.i.i.i.i, label %_ZNKSt7__cxx1112basic_stringIcSt11char_traitsIcESaIcEE11_M_is_localEv.exit.i.i.i.i

_ZNKSt7__cxx1112basic_stringIcSt11char_traitsIcESaIcEE11_M_is_localEv.exit.thread.i.i.i.i: ; preds = %7
  %14 = getelementptr inbounds i8, ptr %8, i64 -24
  %15 = load i64, ptr %14, align 8, !tbaa !18
  %16 = icmp ult i64 %15, 16
  tail call void @llvm.assume(i1 %16)
  br label %_ZNSt7__cxx1112basic_stringIcSt11char_traitsIcESaIcEED2Ev.exit.i.i

_ZNKSt7__cxx1112basic_stringIcSt11char_traitsIcESaIcEE11_M_is_localEv.exit.i.i.i.i: ; preds = %7
  %17 = load i64, ptr %12, align 8, !tbaa !20
  %18 = add i64 %17, 1
  tail call void @_ZdlPvm(ptr noundef %11, i64 noundef %18) #23
  br label %_ZNSt7__cxx1112basic_stringIcSt11char_traitsIcESaIcEED2Ev.exit.i.i

_ZNSt7__cxx1112basic_stringIcSt11char_traitsIcESaIcEED2Ev.exit.i.i: ; preds = %_ZNKSt7__cxx1112basic_stringIcSt11char_traitsIcESaIcEE11_M_is_localEv.exit.i.i.i.i, %_ZNKSt7__cxx1112basic_stringIcSt11char_traitsIcESaIcEE11_M_is_localEv.exit.thread.i.i.i.i
  %19 = getelementptr inbounds i8, ptr %8, i64 -104
  %20 = getelementptr inbounds i8, ptr %8, i64 -96
  %21 = load ptr, ptr %20, align 8, !tbaa !26
  %.not.i.i.i = icmp eq ptr %21, null
  br i1 %.not.i.i.i, label %_ZN4ncnn16ParamDictPrivateUt_D2Ev.exit.i, label %22

22:                                               ; preds = %_ZNSt7__cxx1112basic_stringIcSt11char_traitsIcESaIcEED2Ev.exit.i.i
  %23 = atomicrmw add ptr %21, i32 -1 acq_rel, align 4
  %24 = icmp eq i32 %23, 1
  br i1 %24, label %25, label %_ZN4ncnn16ParamDictPrivateUt_D2Ev.exit.i

25:                                               ; preds = %22
  %26 = getelementptr inbounds i8, ptr %8, i64 -72
  %27 = load ptr, ptr %26, align 8, !tbaa !27
  %.not3.i.i.i = icmp eq ptr %27, null
  %28 = load ptr, ptr %19, align 8, !tbaa !28
  br i1 %.not3.i.i.i, label %33, label %29

29:                                               ; preds = %25
  %30 = load ptr, ptr %27, align 8, !tbaa !4
  %31 = getelementptr inbounds nuw i8, ptr %30, i64 24
  %32 = load ptr, ptr %31, align 8
  invoke void %32(ptr noundef nonnull align 8 dereferenceable(8) %27, ptr noundef %28)
          to label %_ZN4ncnn16ParamDictPrivateUt_D2Ev.exit.i unwind label %35

33:                                               ; preds = %25
  %.not.i1.i.i = icmp eq ptr %28, null
  br i1 %.not.i1.i.i, label %_ZN4ncnn16ParamDictPrivateUt_D2Ev.exit.i, label %34

34:                                               ; preds = %33
  tail call void @free(ptr noundef nonnull %28) #22
  br label %_ZN4ncnn16ParamDictPrivateUt_D2Ev.exit.i

35:                                               ; preds = %29
  %36 = landingpad { ptr, i32 }
          catch ptr null
  %37 = extractvalue { ptr, i32 } %36, 0
  tail call void @__clang_call_terminate(ptr %37) #25
  unreachable

_ZN4ncnn16ParamDictPrivateUt_D2Ev.exit.i:         ; preds = %34, %33, %29, %22, %_ZNSt7__cxx1112basic_stringIcSt11char_traitsIcESaIcEED2Ev.exit.i.i
  %38 = getelementptr inbounds i8, ptr %8, i64 -64
  %39 = getelementptr inbounds i8, ptr %8, i64 -40
  store i64 0, ptr %39, align 8, !tbaa !7
  tail call void @llvm.memset.p0.i64(ptr noundef nonnull align 8 dereferenceable(28) %19, i8 0, i64 28, i1 false)
  tail call void @llvm.memset.p0.i64(ptr noundef nonnull align 8 dereferenceable(20) %38, i8 0, i64 20, i1 false)
  %40 = icmp eq ptr %9, %3
  br i1 %40, label %_ZN4ncnn16ParamDictPrivateD2Ev.exit, label %7

_ZN4ncnn16ParamDictPrivateD2Ev.exit:              ; preds = %_ZN4ncnn16ParamDictPrivateUt_D2Ev.exit.i
  tail call void @_ZdlPvm(ptr noundef %3, i64 noundef 3584) #23
  br label %41

41:                                               ; preds = %_ZN4ncnn16ParamDictPrivateD2Ev.exit, %1
  ret void
}